target datalayout = "e-m:e-p270:32:32-p271:32:32-p272:64:64-i64:64-i128:128-f80:128-n8:16:32:64-S128"
target triple = "x86_64-pc-linux-gnu"

; Function Attrs: inlinehint mustprogress nounwind uwtable
define linkonce_odr noundef nonnull align 8 dereferenceable(8) ptr @_ZSt3minImERKT_S2_S2_(ptr noundef nonnull align 8 dereferenceable(8) %0, ptr noundef nonnull align 8 dereferenceable(8) %1) #9 comdat {
  %3 = alloca ptr, align 8
  %4 = alloca ptr, align 8
  %5 = alloca ptr, align 8
  store ptr %0, ptr %4, align 8, !tbaa !47
  store ptr %1, ptr %5, align 8, !tbaa !47
  %6 = load ptr, ptr %5, align 8, !tbaa !47
  %7 = load i64, ptr %6, align 8, !tbaa !14
  %8 = load ptr, ptr %4, align 8, !tbaa !47
  %9 = load i64, ptr %8, align 8, !tbaa !14
  %10 = icmp ult i64 %7, %9
  br i1 %10, label %11, label %13

11:                                               ; preds = %2
  %12 = load ptr, ptr %5, align 8, !tbaa !47
  store ptr %12, ptr %3, align 8
  br label %15

13:                                               ; preds = %2
  %14 = load ptr, ptr %4, align 8, !tbaa !47
  store ptr %14, ptr %3, align 8
  br label %15

15:                                               ; preds = %13, %11
  %16 = load ptr, ptr %3, align 8
  ret ptr %16
}

; Function Attrs: mustprogress uwtable
define noundef i64 @_ZN5folly8demangleEPKcPcm(ptr noundef %0, ptr noundef %1, i64 noundef %2) #3 {
  %4 = alloca i64, align 8
  %5 = alloca ptr, align 8
  %6 = alloca ptr, align 8
  %7 = alloca i64, align 8
  %8 = alloca i64, align 8
  %9 = alloca i64, align 8
  %10 = alloca i64, align 8
  %11 = alloca i32, align 4
  store ptr %0, ptr %5, align 8, !tbaa !11
  store ptr %1, ptr %6, align 8, !tbaa !11
  store i64 %2, ptr %7, align 8, !tbaa !14
  call void @llvm.lifetime.start.p0(i64 8, ptr %8) #13
  %12 = load ptr, ptr %5, align 8, !tbaa !11
  %13 = call i64 @strlen(ptr noundef %12) #20
  store i64 %13, ptr %8, align 8, !tbaa !14
  %14 = load i64, ptr %8, align 8, !tbaa !14
  %15 = icmp ugt i64 %14, 1024
  br i1 %15, label %16, label %32

16:                                               ; preds = %3
  %17 = load i64, ptr %7, align 8, !tbaa !14
  %18 = icmp ne i64 %17, 0
  br i1 %18, label %19, label %30

19:                                               ; preds = %16
  call void @llvm.lifetime.start.p0(i64 8, ptr %9) #13
  call void @llvm.lifetime.start.p0(i64 8, ptr %10) #13
  %20 = load i64, ptr %7, align 8, !tbaa !14
  %21 = sub i64 %20, 1
  store i64 %21, ptr %10, align 8, !tbaa !14
  %22 = call noundef nonnull align 8 dereferenceable(8) ptr @_ZSt3minImERKT_S2_S2_(ptr noundef nonnull align 8 dereferenceable(8) %8, ptr noundef nonnull align 8 dereferenceable(8) %10)
  %23 = load i64, ptr %22, align 8, !tbaa !14
  call void @llvm.lifetime.end.p0(i64 8, ptr %10) #13
  store i64 %23, ptr %9, align 8, !tbaa !14
  %24 = load ptr, ptr %6, align 8, !tbaa !11
  %25 = load ptr, ptr %5, align 8, !tbaa !11
  %26 = load i64, ptr %9, align 8, !tbaa !14
  call void @llvm.memcpy.p0.p0.i64(ptr align 1 %24, ptr align 1 %25, i64 %26, i1 false)
  %27 = load ptr, ptr %6, align 8, !tbaa !11
  %28 = load i64, ptr %9, align 8, !tbaa !14
  %29 = getelementptr inbounds nuw i8, ptr %27, i64 %28
  store i8 0, ptr %29, align 1, !tbaa !28
  call void @llvm.lifetime.end.p0(i64 8, ptr %9) #13
  br label %30

30:                                               ; preds = %19, %16
  %31 = load i64, ptr %8, align 8, !tbaa !14
  store i64 %31, ptr %4, align 8
  store i32 1, ptr %11, align 4
  br label %33

32:                                               ; preds = %3
  store i32 0, ptr %11, align 4
  br label %33

33:                                               ; preds = %32, %30
  call void @llvm.lifetime.end.p0(i64 8, ptr %8) #13
  %34 = load i32, ptr %11, align 4
  switch i32 %34, label %42 [
    i32 0, label %35
    i32 1, label %40
  ]

35:                                               ; preds = %33
  %36 = load ptr, ptr %6, align 8, !tbaa !11
  %37 = load ptr, ptr %5, align 8, !tbaa !11
  %38 = load i64, ptr %7, align 8, !tbaa !14
  %39 = call noundef i64 @_ZN5folly7strlcpyEPcPKcm(ptr noundef %36, ptr noundef %37, i64 noundef %38)
  store i64 %39, ptr %4, align 8
  br label %40

40:                                               ; preds = %35, %33
  %41 = load i64, ptr %4, align 8
  ret i64 %41

42:                                               ; preds = %33
  unreachable
}