; Function Attrs: mustprogress uwtable
define noundef i64 @_ZN5folly8demangleEPKcPcm(ptr noundef %0, ptr noundef %1, i64 noundef %2) local_unnamed_addr #2 {
  %4 = tail call i64 @strlen(ptr noundef nonnull dereferenceable(1) %0) #21
  %5 = icmp ugt i64 %4, 1024
  br i1 %5, label %6, label %10

6:                                                ; preds = %3
  %.not = icmp eq i64 %2, 0
  br i1 %.not, label %.thread, label %7

7:                                                ; preds = %6
  %8 = add i64 %2, -1
  %.sroa.speculated = tail call i64 @llvm.umin.i64(i64 %8, i64 %4)
  tail call void @llvm.memcpy.p0.p0.i64(ptr align 1 %1, ptr nonnull align 1 %0, i64 %.sroa.speculated, i1 false)
  %9 = getelementptr inbounds nuw i8, ptr %1, i64 %.sroa.speculated
  store i8 0, ptr %9, align 1, !tbaa !7
  br label %.thread

10:                                               ; preds = %3
  %11 = tail call noundef i64 @_ZN5folly7strlcpyEPcPKcm(ptr noundef %1, ptr noundef nonnull %0, i64 noundef %2)
  br label %.thread

.thread:                                          ; preds = %7, %6, %10
  %.1 = phi i64 [ %11, %10 ], [ %4, %6 ], [ %4, %7 ]
  ret i64 %.1
}